; Function Attrs: mustprogress uwtable
define hidden void @_ZN16bound_propagator15del_constraintsEv(ptr noundef nonnull align 8 dereferenceable(280) %this) local_unnamed_addr #3 align 2 {
entry:
  %m_constraints = getelementptr inbounds i8, ptr %this, i64 80
  %0 = load ptr, ptr %m_constraints, align 8
  %cmp.i = icmp eq ptr %0, null
  br i1 %cmp.i, label %for.end, label %_ZNK6vectorIN16bound_propagator10constraintELb0EjE5emptyEv.exit

_ZNK6vectorIN16bound_propagator10constraintELb0EjE5emptyEv.exit: ; preds = %entry
  %arrayidx.i = getelementptr inbounds i8, ptr %0, i64 -4
  %1 = load i32, ptr %arrayidx.i, align 4
  %cmp3.i = icmp eq i32 %1, 0
  br i1 %cmp3.i, label %for.end, label %for.body.lr.ph.i

for.body.lr.ph.i:                                 ; preds = %_ZNK6vectorIN16bound_propagator10constraintELb0EjE5emptyEv.exit
  %2 = zext i32 %1 to i64
  %add.ptr.i.i = getelementptr inbounds %"class.bound_propagator::constraint", ptr %0, i64 %2
  %m_eq_manager.i.i = getelementptr inbounds i8, ptr %this, i64 16
  br label %for.body.i

for.body.i:                                       ; preds = %_ZN16bound_propagator14del_constraintERNS_10constraintE.exit.i, %for.body.lr.ph.i
  %__begin1.05.i = phi ptr [ %0, %for.body.lr.ph.i ], [ %incdec.ptr.i, %_ZN16bound_propagator14del_constraintERNS_10constraintE.exit.i ]
  %bf.load.i.i = load i8, ptr %__begin1.05.i, align 8
  %bf.clear.i.i = and i8 %bf.load.i.i, 3
  %cond.i.i = icmp eq i8 %bf.clear.i.i, 0
  br i1 %cond.i.i, label %_ZN16bound_propagator14del_constraintERNS_10constraintE.exit.i, label %sw.default.i.i

sw.default.i.i:                                   ; preds = %for.body.i
  tail call void @_Z26notify_assertion_violationPKciS0_(ptr noundef nonnull @.str, i32 noundef 110, ptr noundef nonnull @.str.1)
  tail call void @exit(i32 noundef 114) #19
  unreachable

_ZN16bound_propagator14del_constraintERNS_10constraintE.exit.i: ; preds = %for.body.i
  %3 = getelementptr inbounds i8, ptr %__begin1.05.i, i64 16
  %4 = load ptr, ptr %3, align 8
  tail call void @_ZN23linear_equation_manager3delEP15linear_equation(ptr noundef nonnull align 8 dereferenceable(64) %m_eq_manager.i.i, ptr noundef %4)
  %incdec.ptr.i = getelementptr inbounds i8, ptr %__begin1.05.i, i64 24
  %cmp.not.i = icmp eq ptr %incdec.ptr.i, %add.ptr.i.i
  br i1 %cmp.not.i, label %for.end.i, label %for.body.i

for.end.i:                                        ; preds = %_ZN16bound_propagator14del_constraintERNS_10constraintE.exit.i
  %.pre.i = load ptr, ptr %m_constraints, align 8
  %tobool.not.i.i = icmp eq ptr %.pre.i, null
  br i1 %tobool.not.i.i, label %_ZN6vectorIN16bound_propagator10constraintELb0EjE8finalizeEv.exit, label %_ZN16bound_propagator20del_constraints_coreEv.exit

_ZN16bound_propagator20del_constraints_coreEv.exit: ; preds = %for.end.i
  %arrayidx.i.i = getelementptr inbounds i8, ptr %.pre.i, i64 -4
  store i32 0, ptr %arrayidx.i.i, align 4
  %.pr = load ptr, ptr %m_constraints, align 8
  %tobool.not.i.i4 = icmp eq ptr %.pr, null
  br i1 %tobool.not.i.i4, label %_ZN6vectorIN16bound_propagator10constraintELb0EjE8finalizeEv.exit, label %if.then.i.i5

if.then.i.i5:                                     ; preds = %_ZN16bound_propagator20del_constraints_coreEv.exit
  %add.ptr.i.i.i = getelementptr inbounds i8, ptr %.pr, i64 -8
  tail call void @_ZN6memory10deallocateEPv(ptr noundef nonnull %add.ptr.i.i.i)
  br label %_ZN6vectorIN16bound_propagator10constraintELb0EjE8finalizeEv.exit

_ZN6vectorIN16bound_propagator10constraintELb0EjE8finalizeEv.exit: ; preds = %for.end.i, %_ZN16bound_propagator20del_constraints_coreEv.exit, %if.then.i.i5
  store ptr null, ptr %m_constraints, align 8
  %m_watches = getelementptr inbounds i8, ptr %this, i64 120
  %5 = load ptr, ptr %m_watches, align 8
  %cmp.i.i = icmp eq ptr %5, null
  br i1 %cmp.i.i, label %for.end, label %_ZN6vectorI7svectorIjjELb1EjE3endEv.exit

_ZN6vectorI7svectorIjjELb1EjE3endEv.exit:         ; preds = %_ZN6vectorIN16bound_propagator10constraintELb0EjE8finalizeEv.exit
  %arrayidx.i.i6 = getelementptr inbounds i8, ptr %5, i64 -4
  %6 = load i32, ptr %arrayidx.i.i6, align 4
  %7 = zext i32 %6 to i64
  %add.ptr.i = getelementptr inbounds %class.svector.2, ptr %5, i64 %7
  %cmp.not11 = icmp eq i32 %6, 0
  br i1 %cmp.not11, label %for.end, label %for.body

for.body:                                         ; preds = %_ZN6vectorI7svectorIjjELb1EjE3endEv.exit, %_ZN6vectorIjLb0EjE8finalizeEv.exit
  %__begin1.012 = phi ptr [ %incdec.ptr, %_ZN6vectorIjLb0EjE8finalizeEv.exit ], [ %5, %_ZN6vectorI7svectorIjjELb1EjE3endEv.exit ]
  %8 = load ptr, ptr %__begin1.012, align 8
  %tobool.not.i.i7 = icmp eq ptr %8, null
  br i1 %tobool.not.i.i7, label %_ZN6vectorIjLb0EjE8finalizeEv.exit, label %if.then.i.i8

if.then.i.i8:                                     ; preds = %for.body
  %add.ptr.i.i.i9 = getelementptr inbounds i8, ptr %8, i64 -8
  tail call void @_ZN6memory10deallocateEPv(ptr noundef nonnull %add.ptr.i.i.i9)
  br label %_ZN6vectorIjLb0EjE8finalizeEv.exit

_ZN6vectorIjLb0EjE8finalizeEv.exit:               ; preds = %for.body, %if.then.i.i8
  store ptr null, ptr %__begin1.012, align 8
  %incdec.ptr = getelementptr inbounds i8, ptr %__begin1.012, i64 8
  %cmp.not = icmp eq ptr %incdec.ptr, %add.ptr.i
  br i1 %cmp.not, label %for.end, label %for.body

for.end:                                          ; preds = %_ZN6vectorIjLb0EjE8finalizeEv.exit, %_ZN6vectorIN16bound_propagator10constraintELb0EjE8finalizeEv.exit, %_ZN6vectorI7svectorIjjELb1EjE3endEv.exit, %entry, %_ZNK6vectorIN16bound_propagator10constraintELb0EjE5emptyEv.exit
  ret void
}